(iteConfig
Config
p1
(dp2
S'objectSize'
p3
F2
sS'fixationDuration'
p4
F0.75
sS'blocks'
p5
I4
sS'trialsPractice2'
p6
I7
sS'trialsPractice1'
p7
I2
sS'movementDurationExit'
p8
F2
sS'exitDuration'
p9
F1
sS'delay'
p10
F2
sS'movementDurationEntrance'
p11
F1
sS'doorSize'
p12
(lp13
F3
aF0.5
asS'trialsPerBlockStart'
p14
I1
sS'entranceDuration'
p15
F1
sS'trialsPerBlockLow'
p16
I3
sS'outputFolder'
p17
S'.'
sS'trialsPerBlockHigh'
p18
I20
sS'roomSize'
p19
(lp20
F20
aF20
asS'subject'
p21
I99
sb.